target datalayout = "e-m:e-p270:32:32-p271:32:32-p272:64:64-i64:64-i128:128-f80:128-n8:16:32:64-S128"
target triple = "x86_64-pc-linux-gnu"

%"class.icu_77::number::Precision" = type <{ i32, [4 x i8], %"union.icu_77::number::Precision::PrecisionUnion", i32, [4 x i8] }>
%"union.icu_77::number::Precision::PrecisionUnion" = type { %"struct.icu_77::number::Precision::PrecisionUnion::IncrementSettings" }
%"struct.icu_77::number::Precision::PrecisionUnion::IncrementSettings" = type { i64, i16, i16 }
%"class.icu_77::UnicodeString" = type { %"class.icu_77::Replaceable", %"union.icu_77::UnicodeString::StackBufferOrFields" }
%"class.icu_77::Replaceable" = type { %"class.icu_77::UObject" }
%"class.icu_77::UObject" = type { ptr }
%"union.icu_77::UnicodeString::StackBufferOrFields" = type { %struct.anon.0, [32 x i8] }
%struct.anon.0 = type { i16, i32, i32, ptr }
%"class.icu_77::ConstChar16Ptr" = type { ptr }
%"class.icu_77::StringSegment" = type <{ ptr, i32, i32, i8, [7 x i8] }>
%struct.anon = type { i16, [27 x i16] }

@.str = private unnamed_addr constant [21 x i16] [i16 112, i16 114, i16 101, i16 99, i16 105, i16 115, i16 105, i16 111, i16 110, i16 45, i16 105, i16 110, i16 99, i16 114, i16 101, i16 109, i16 101, i16 110, i16 116, i16 47, i16 0], align 2

; Function Attrs: inlinehint mustprogress nounwind uwtable
define linkonce_odr noundef ptr @_ZNK6icu_7713UnicodeString13getArrayStartEv(ptr noundef nonnull align 8 dereferenceable(64) %0) #2 comdat align 2 {
  %2 = alloca ptr, align 8
  store ptr %0, ptr %2, align 8, !tbaa !23
  %3 = load ptr, ptr %2, align 8
  %4 = getelementptr inbounds nuw %"class.icu_77::UnicodeString", ptr %3, i32 0, i32 1
  %5 = getelementptr inbounds nuw %struct.anon.0, ptr %4, i32 0, i32 0
  %6 = load i16, ptr %5, align 8, !tbaa !84
  %7 = sext i16 %6 to i32
  %8 = and i32 %7, 2
  %9 = icmp ne i32 %8, 0
  br i1 %9, label %10, label %14

10:                                               ; preds = %1
  %11 = getelementptr inbounds nuw %"class.icu_77::UnicodeString", ptr %3, i32 0, i32 1
  %12 = getelementptr inbounds nuw %struct.anon, ptr %11, i32 0, i32 1
  %13 = getelementptr inbounds [27 x i16], ptr %12, i64 0, i64 0
  br label %18

14:                                               ; preds = %1
  %15 = getelementptr inbounds nuw %"class.icu_77::UnicodeString", ptr %3, i32 0, i32 1
  %16 = getelementptr inbounds nuw %struct.anon.0, ptr %15, i32 0, i32 3
  %17 = load ptr, ptr %16, align 8, !tbaa !84
  br label %18

18:                                               ; preds = %14, %10
  %19 = phi ptr [ %13, %10 ], [ %17, %14 ]
  ret ptr %19
}

; Function Attrs: inlinehint mustprogress uwtable
define linkonce_odr void @_ZNK6icu_7713UnicodeString10pinIndicesERiS1_(ptr noundef nonnull align 8 dereferenceable(64) %0, ptr noundef nonnull align 4 dereferenceable(4) %1, ptr noundef nonnull align 4 dereferenceable(4) %2) #3 comdat align 2 {
  %4 = alloca ptr, align 8
  %5 = alloca ptr, align 8
  %6 = alloca ptr, align 8
  %7 = alloca i32, align 4
  store ptr %0, ptr %4, align 8, !tbaa !23
  store ptr %1, ptr %5, align 8, !tbaa !20
  store ptr %2, ptr %6, align 8, !tbaa !20
  %8 = load ptr, ptr %4, align 8
  call void @llvm.lifetime.start.p0(i64 4, ptr %7) #11
  %9 = call noundef i32 @_ZNK6icu_7713UnicodeString6lengthEv(ptr noundef nonnull align 8 dereferenceable(64) %8)
  store i32 %9, ptr %7, align 4, !tbaa !14
  %10 = load ptr, ptr %5, align 8, !tbaa !20
  %11 = load i32, ptr %10, align 4, !tbaa !14
  %12 = icmp slt i32 %11, 0
  br i1 %12, label %13, label %15

13:                                               ; preds = %3
  %14 = load ptr, ptr %5, align 8, !tbaa !20
  store i32 0, ptr %14, align 4, !tbaa !14
  br label %24

15:                                               ; preds = %3
  %16 = load ptr, ptr %5, align 8, !tbaa !20
  %17 = load i32, ptr %16, align 4, !tbaa !14
  %18 = load i32, ptr %7, align 4, !tbaa !14
  %19 = icmp sgt i32 %17, %18
  br i1 %19, label %20, label %23

20:                                               ; preds = %15
  %21 = load i32, ptr %7, align 4, !tbaa !14
  %22 = load ptr, ptr %5, align 8, !tbaa !20
  store i32 %21, ptr %22, align 4, !tbaa !14
  br label %23

23:                                               ; preds = %20, %15
  br label %24

24:                                               ; preds = %23, %13
  %25 = load ptr, ptr %6, align 8, !tbaa !20
  %26 = load i32, ptr %25, align 4, !tbaa !14
  %27 = icmp slt i32 %26, 0
  br i1 %27, label %28, label %30

28:                                               ; preds = %24
  %29 = load ptr, ptr %6, align 8, !tbaa !20
  store i32 0, ptr %29, align 4, !tbaa !14
  br label %45

30:                                               ; preds = %24
  %31 = load ptr, ptr %6, align 8, !tbaa !20
  %32 = load i32, ptr %31, align 4, !tbaa !14
  %33 = load i32, ptr %7, align 4, !tbaa !14
  %34 = load ptr, ptr %5, align 8, !tbaa !20
  %35 = load i32, ptr %34, align 4, !tbaa !14
  %36 = sub nsw i32 %33, %35
  %37 = icmp sgt i32 %32, %36
  br i1 %37, label %38, label %44

38:                                               ; preds = %30
  %39 = load i32, ptr %7, align 4, !tbaa !14
  %40 = load ptr, ptr %5, align 8, !tbaa !20
  %41 = load i32, ptr %40, align 4, !tbaa !14
  %42 = sub nsw i32 %39, %41
  %43 = load ptr, ptr %6, align 8, !tbaa !20
  store i32 %42, ptr %43, align 4, !tbaa !14
  br label %44

44:                                               ; preds = %38, %30
  br label %45

45:                                               ; preds = %44, %28
  call void @llvm.lifetime.end.p0(i64 4, ptr %7) #11
  ret void
}

; Function Attrs: inlinehint mustprogress nounwind uwtable
define linkonce_odr noundef signext i8 @_ZNK6icu_7713UnicodeString7isBogusEv(ptr noundef nonnull align 8 dereferenceable(64) %0) #2 comdat align 2 {
  %2 = alloca ptr, align 8
  store ptr %0, ptr %2, align 8, !tbaa !23
  %3 = load ptr, ptr %2, align 8
  %4 = getelementptr inbounds nuw %"class.icu_77::UnicodeString", ptr %3, i32 0, i32 1
  %5 = getelementptr inbounds nuw %struct.anon.0, ptr %4, i32 0, i32 0
  %6 = load i16, ptr %5, align 8, !tbaa !84
  %7 = sext i16 %6 to i32
  %8 = and i32 %7, 1
  %9 = trunc i32 %8 to i8
  ret i8 %9
}

; Function Attrs: inlinehint mustprogress nounwind uwtable
define linkonce_odr noundef i32 @_ZNK6icu_7713UnicodeString14getShortLengthEv(ptr noundef nonnull align 8 dereferenceable(64) %0) #2 comdat align 2 {
  %2 = alloca ptr, align 8
  store ptr %0, ptr %2, align 8, !tbaa !23
  %3 = load ptr, ptr %2, align 8
  %4 = getelementptr inbounds nuw %"class.icu_77::UnicodeString", ptr %3, i32 0, i32 1
  %5 = getelementptr inbounds nuw %struct.anon.0, ptr %4, i32 0, i32 0
  %6 = load i16, ptr %5, align 8, !tbaa !84
  %7 = sext i16 %6 to i32
  %8 = ashr i32 %7, 5
  ret i32 %8
}

; Function Attrs: inlinehint mustprogress nounwind uwtable
define linkonce_odr noundef signext i8 @_ZNK6icu_7713UnicodeString14hasShortLengthEv(ptr noundef nonnull align 8 dereferenceable(64) %0) #2 comdat align 2 {
  %2 = alloca ptr, align 8
  store ptr %0, ptr %2, align 8, !tbaa !23
  %3 = load ptr, ptr %2, align 8
  %4 = getelementptr inbounds nuw %"class.icu_77::UnicodeString", ptr %3, i32 0, i32 1
  %5 = getelementptr inbounds nuw %struct.anon.0, ptr %4, i32 0, i32 0
  %6 = load i16, ptr %5, align 8, !tbaa !84
  %7 = sext i16 %6 to i32
  %8 = icmp sge i32 %7, 0
  %9 = zext i1 %8 to i8
  ret i8 %9
}

; Function Attrs: inlinehint mustprogress uwtable
define linkonce_odr noundef signext i8 @_ZNK6icu_7713UnicodeString17doEqualsSubstringEiiRKS0_ii(ptr noundef nonnull align 8 dereferenceable(64) %0, i32 noundef %1, i32 noundef %2, ptr noundef nonnull align 8 dereferenceable(64) %3, i32 noundef %4, i32 noundef %5) #3 comdat align 2 {
  %7 = alloca i8, align 1
  %8 = alloca ptr, align 8
  %9 = alloca i32, align 4
  %10 = alloca i32, align 4
  %11 = alloca ptr, align 8
  %12 = alloca i32, align 4
  %13 = alloca i32, align 4
  store ptr %0, ptr %8, align 8, !tbaa !23
  store i32 %1, ptr %9, align 4, !tbaa !14
  store i32 %2, ptr %10, align 4, !tbaa !14
  store ptr %3, ptr %11, align 8, !tbaa !23
  store i32 %4, ptr %12, align 4, !tbaa !14
  store i32 %5, ptr %13, align 4, !tbaa !14
  %14 = load ptr, ptr %8, align 8
  %15 = load ptr, ptr %11, align 8, !tbaa !23
  %16 = call noundef signext i8 @_ZNK6icu_7713UnicodeString7isBogusEv(ptr noundef nonnull align 8 dereferenceable(64) %15)
  %17 = icmp ne i8 %16, 0
  br i1 %17, label %18, label %20

18:                                               ; preds = %6
  %19 = call noundef signext i8 @_ZNK6icu_7713UnicodeString7isBogusEv(ptr noundef nonnull align 8 dereferenceable(64) %14)
  store i8 %19, ptr %7, align 1
  br label %36

20:                                               ; preds = %6
  %21 = load ptr, ptr %11, align 8, !tbaa !23
  call void @_ZNK6icu_7713UnicodeString10pinIndicesERiS1_(ptr noundef nonnull align 8 dereferenceable(64) %21, ptr noundef nonnull align 4 dereferenceable(4) %12, ptr noundef nonnull align 4 dereferenceable(4) %13)
  %22 = call noundef signext i8 @_ZNK6icu_7713UnicodeString7isBogusEv(ptr noundef nonnull align 8 dereferenceable(64) %14)
  %23 = icmp ne i8 %22, 0
  br i1 %23, label %33, label %24

24:                                               ; preds = %20
  %25 = load i32, ptr %9, align 4, !tbaa !14
  %26 = load i32, ptr %10, align 4, !tbaa !14
  %27 = load ptr, ptr %11, align 8, !tbaa !23
  %28 = call noundef ptr @_ZNK6icu_7713UnicodeString13getArrayStartEv(ptr noundef nonnull align 8 dereferenceable(64) %27)
  %29 = load i32, ptr %12, align 4, !tbaa !14
  %30 = load i32, ptr %13, align 4, !tbaa !14
  %31 = call noundef signext i8 @_ZNK6icu_7713UnicodeString17doEqualsSubstringEiiPKDsii(ptr noundef nonnull align 8 dereferenceable(64) %14, i32 noundef %25, i32 noundef %26, ptr noundef %28, i32 noundef %29, i32 noundef %30)
  %32 = icmp ne i8 %31, 0
  br label %33

33:                                               ; preds = %24, %20
  %34 = phi i1 [ false, %20 ], [ %32, %24 ]
  %35 = zext i1 %34 to i8
  store i8 %35, ptr %7, align 1
  br label %36

36:                                               ; preds = %33, %18
  %37 = load i8, ptr %7, align 1
  ret i8 %37
}

; Function Attrs: inlinehint mustprogress uwtable
define linkonce_odr noundef i32 @_ZNK6icu_7713UnicodeString6lengthEv(ptr noundef nonnull align 8 dereferenceable(64) %0) #3 comdat align 2 {
  %2 = alloca ptr, align 8
  store ptr %0, ptr %2, align 8, !tbaa !23
  %3 = load ptr, ptr %2, align 8
  %4 = call noundef signext i8 @_ZNK6icu_7713UnicodeString14hasShortLengthEv(ptr noundef nonnull align 8 dereferenceable(64) %3)
  %5 = icmp ne i8 %4, 0
  br i1 %5, label %6, label %8

6:                                                ; preds = %1
  %7 = call noundef i32 @_ZNK6icu_7713UnicodeString14getShortLengthEv(ptr noundef nonnull align 8 dereferenceable(64) %3)
  br label %12

8:                                                ; preds = %1
  %9 = getelementptr inbounds nuw %"class.icu_77::UnicodeString", ptr %3, i32 0, i32 1
  %10 = getelementptr inbounds nuw %struct.anon.0, ptr %9, i32 0, i32 1
  %11 = load i32, ptr %10, align 4, !tbaa !84
  br label %12

12:                                               ; preds = %8, %6
  %13 = phi i32 [ %7, %6 ], [ %11, %8 ]
  ret i32 %13
}

; Function Attrs: inlinehint mustprogress nounwind uwtable
define linkonce_odr void @_ZN6icu_7714ConstChar16PtrD2Ev(ptr noundef nonnull align 8 dereferenceable(8) %0) unnamed_addr #2 comdat align 2 {
  %2 = alloca ptr, align 8
  store ptr %0, ptr %2, align 8, !tbaa !32
  %3 = load ptr, ptr %2, align 8
  %4 = getelementptr inbounds nuw %"class.icu_77::ConstChar16Ptr", ptr %3, i32 0, i32 0
  %5 = load ptr, ptr %4, align 8, !tbaa !36
  call void asm sideeffect "", "rm,~{memory},~{dirflag},~{fpsr},~{flags}"(ptr %5) #11, !srcloc !38
  ret void
}

; Function Attrs: inlinehint mustprogress uwtable
define linkonce_odr noundef signext i8 @_ZNK6icu_7713UnicodeString10startsWithERKS0_(ptr noundef nonnull align 8 dereferenceable(64) %0, ptr noundef nonnull align 8 dereferenceable(64) %1) #3 comdat align 2 {
  %3 = alloca ptr, align 8
  %4 = alloca ptr, align 8
  store ptr %0, ptr %3, align 8, !tbaa !23
  store ptr %1, ptr %4, align 8, !tbaa !23
  %5 = load ptr, ptr %3, align 8
  %6 = load ptr, ptr %4, align 8, !tbaa !23
  %7 = call noundef i32 @_ZNK6icu_7713UnicodeString6lengthEv(ptr noundef nonnull align 8 dereferenceable(64) %6)
  %8 = load ptr, ptr %4, align 8, !tbaa !23
  %9 = load ptr, ptr %4, align 8, !tbaa !23
  %10 = call noundef i32 @_ZNK6icu_7713UnicodeString6lengthEv(ptr noundef nonnull align 8 dereferenceable(64) %9)
  %11 = call noundef signext i8 @_ZNK6icu_7713UnicodeString17doEqualsSubstringEiiRKS0_ii(ptr noundef nonnull align 8 dereferenceable(64) %5, i32 noundef 0, i32 noundef %7, ptr noundef nonnull align 8 dereferenceable(64) %8, i32 noundef 0, i32 noundef %10)
  ret i8 %11
}

; Function Attrs: inlinehint mustprogress nounwind uwtable
define linkonce_odr void @_ZN6icu_7714ConstChar16PtrC2EPKDs(ptr noundef nonnull align 8 dereferenceable(8) %0, ptr noundef %1) unnamed_addr #2 comdat align 2 {
  %3 = alloca ptr, align 8
  %4 = alloca ptr, align 8
  store ptr %0, ptr %3, align 8, !tbaa !32
  store ptr %1, ptr %4, align 8, !tbaa !34
  %5 = load ptr, ptr %3, align 8
  %6 = getelementptr inbounds nuw %"class.icu_77::ConstChar16Ptr", ptr %5, i32 0, i32 0
  %7 = load ptr, ptr %4, align 8, !tbaa !34
  store ptr %7, ptr %6, align 8, !tbaa !36
  ret void
}

; Function Attrs: mustprogress nounwind uwtable
define linkonce_odr void @_ZN6icu_776number9PrecisionC2Ev(ptr noundef nonnull align 8 dereferenceable(28) %0) unnamed_addr #0 comdat align 2 {
  %2 = alloca ptr, align 8
  store ptr %0, ptr %2, align 8, !tbaa !25
  %3 = load ptr, ptr %2, align 8
  %4 = getelementptr inbounds nuw %"class.icu_77::number::Precision", ptr %3, i32 0, i32 0
  store i32 0, ptr %4, align 8, !tbaa !27
  %5 = getelementptr inbounds nuw %"class.icu_77::number::Precision", ptr %3, i32 0, i32 3
  store i32 0, ptr %5, align 8, !tbaa !31
  ret void
}

; Function Attrs: inlinehint mustprogress nounwind uwtable
define internal noundef signext i8 @_ZL9U_FAILURE10UErrorCode(i32 noundef %0) #2 {
  %2 = alloca i32, align 4
  store i32 %0, ptr %2, align 4, !tbaa !15
  %3 = load i32, ptr %2, align 4, !tbaa !15
  %4 = icmp sgt i32 %3, 0
  %5 = zext i1 %4 to i8
  ret i8 %5
}

; Function Attrs: mustprogress uwtable
define void @_ZN6icu_775units11UnitsRouter24parseSkeletonToPrecisionENS_13UnicodeStringER10UErrorCode(ptr dead_on_unwind noalias writable sret(%"class.icu_77::number::Precision") align 8 %0, ptr noundef %1, ptr noundef nonnull align 4 dereferenceable(4) %2) #1 align 2 personality ptr @__gxx_personality_v0 {
  %4 = alloca ptr, align 8
  %5 = alloca ptr, align 8
  %6 = alloca i32, align 4
  %7 = alloca %"class.icu_77::UnicodeString", align 8
  %8 = alloca %"class.icu_77::ConstChar16Ptr", align 8
  %9 = alloca ptr, align 8
  %10 = alloca i32, align 4
  %11 = alloca i32, align 4
  %12 = alloca %"class.icu_77::StringSegment", align 8
  store ptr %1, ptr %4, align 8, !tbaa !23
  store ptr %2, ptr %5, align 8, !tbaa !22
  %13 = load ptr, ptr %5, align 8, !tbaa !22
  %14 = load i32, ptr %13, align 4, !tbaa !15
  %15 = call noundef signext i8 @_ZL9U_FAILURE10UErrorCode(i32 noundef %14)
  %16 = icmp ne i8 %15, 0
  br i1 %16, label %17, label %18

17:                                               ; preds = %3
  call void @_ZN6icu_776number9PrecisionC2Ev(ptr noundef nonnull align 8 dereferenceable(28) %0)
  br label %38

18:                                               ; preds = %3
  call void @llvm.lifetime.start.p0(i64 4, ptr %6) #11
  store i32 20, ptr %6, align 4, !tbaa !14
  call void @llvm.lifetime.start.p0(i64 64, ptr %7) #11
  call void @_ZN6icu_7714ConstChar16PtrC2EPKDs(ptr noundef nonnull align 8 dereferenceable(8) %8, ptr noundef @.str)
  invoke void @_ZN6icu_7713UnicodeStringC1EaNS_14ConstChar16PtrEi(ptr noundef nonnull align 8 dereferenceable(64) %7, i8 noundef signext 1, ptr noundef %8, i32 noundef -1)
          to label %19 unwind label %26

19:                                               ; preds = %18
  %20 = invoke noundef signext i8 @_ZNK6icu_7713UnicodeString10startsWithERKS0_(ptr noundef nonnull align 8 dereferenceable(64) %1, ptr noundef nonnull align 8 dereferenceable(64) %7)
          to label %21 unwind label %30

21:                                               ; preds = %19
  %22 = icmp ne i8 %20, 0
  %23 = xor i1 %22, true
  call void @_ZN6icu_7713UnicodeStringD1Ev(ptr noundef nonnull align 8 dereferenceable(64) %7) #11
  call void @_ZN6icu_7714ConstChar16PtrD2Ev(ptr noundef nonnull align 8 dereferenceable(8) %8) #11
  call void @llvm.lifetime.end.p0(i64 64, ptr %7) #11
  br i1 %23, label %24, label %35

24:                                               ; preds = %21
  %25 = load ptr, ptr %5, align 8, !tbaa !22
  store i32 3, ptr %25, align 4, !tbaa !15
  call void @_ZN6icu_776number9PrecisionC2Ev(ptr noundef nonnull align 8 dereferenceable(28) %0)
  store i32 1, ptr %11, align 4
  br label %37

26:                                               ; preds = %18
  %27 = landingpad { ptr, i32 }
          cleanup
  %28 = extractvalue { ptr, i32 } %27, 0
  store ptr %28, ptr %9, align 8
  %29 = extractvalue { ptr, i32 } %27, 1
  store i32 %29, ptr %10, align 4
  br label %34

30:                                               ; preds = %19
  %31 = landingpad { ptr, i32 }
          cleanup
  %32 = extractvalue { ptr, i32 } %31, 0
  store ptr %32, ptr %9, align 8
  %33 = extractvalue { ptr, i32 } %31, 1
  store i32 %33, ptr %10, align 4
  call void @_ZN6icu_7713UnicodeStringD1Ev(ptr noundef nonnull align 8 dereferenceable(64) %7) #11
  br label %34

34:                                               ; preds = %30, %26
  call void @_ZN6icu_7714ConstChar16PtrD2Ev(ptr noundef nonnull align 8 dereferenceable(8) %8) #11
  call void @llvm.lifetime.end.p0(i64 64, ptr %7) #11
  call void @llvm.lifetime.end.p0(i64 4, ptr %6) #11
  br label %39

35:                                               ; preds = %21
  call void @llvm.lifetime.start.p0(i64 24, ptr %12) #11
  call void @_ZN6icu_7713StringSegmentC1ERKNS_13UnicodeStringEb(ptr noundef nonnull align 8 dereferenceable(17) %12, ptr noundef nonnull align 8 dereferenceable(64) %1, i1 noundef zeroext false)
  call void @_ZN6icu_7713StringSegment12adjustOffsetEi(ptr noundef nonnull align 8 dereferenceable(17) %12, i32 noundef 20)
  call void @_ZN6icu_776number9PrecisionC2Ev(ptr noundef nonnull align 8 dereferenceable(28) %0)
  %36 = load ptr, ptr %5, align 8, !tbaa !22
  call void @_ZN6icu_776number4impl20parseIncrementOptionERKNS_13StringSegmentERNS0_9PrecisionER10UErrorCode(ptr noundef nonnull align 8 dereferenceable(17) %12, ptr noundef nonnull align 8 dereferenceable(28) %0, ptr noundef nonnull align 4 dereferenceable(4) %36)
  store i32 1, ptr %11, align 4
  call void @llvm.lifetime.end.p0(i64 24, ptr %12) #11
  br label %37

37:                                               ; preds = %35, %24
  call void @llvm.lifetime.end.p0(i64 4, ptr %6) #11
  br label %38

38:                                               ; preds = %37, %17
  ret void

39:                                               ; preds = %34
  %40 = load ptr, ptr %9, align 8
  %41 = load i32, ptr %10, align 4
  %42 = insertvalue { ptr, i32 } poison, ptr %40, 0
  %43 = insertvalue { ptr, i32 } %42, i32 %41, 1
  resume { ptr, i32 } %43
}