; Function Attrs: mustprogress uwtable
define void @_ZN6icu_775units11UnitsRouter24parseSkeletonToPrecisionENS_13UnicodeStringER10UErrorCode(ptr dead_on_unwind noalias writable sret(%"class.icu_77::number::Precision") align 8 %0, ptr noundef %1, ptr noundef nonnull align 4 dereferenceable(4) %2) local_unnamed_addr #1 align 2 personality ptr @__gxx_personality_v0 {
  %4 = alloca %"class.icu_77::UnicodeString", align 8
  %5 = alloca %"class.icu_77::ConstChar16Ptr", align 8
  %6 = alloca %"class.icu_77::StringSegment", align 8
  %7 = load i32, ptr %2, align 4, !tbaa !13
  %8 = icmp slt i32 %7, 1
  br i1 %8, label %11, label %9

9:                                                ; preds = %3
  store i32 0, ptr %0, align 8, !tbaa !15
  %10 = getelementptr inbounds nuw i8, ptr %0, i64 24
  store i32 0, ptr %10, align 8, !tbaa !19
  br label %44

11:                                               ; preds = %3
  call void @llvm.lifetime.start.p0(i64 64, ptr nonnull %4) #14
  store ptr @.str, ptr %5, align 8, !tbaa !20
  invoke void @_ZN6icu_7713UnicodeStringC1EaNS_14ConstChar16PtrEi(ptr noundef nonnull align 8 dereferenceable(64) %4, i8 noundef signext 1, ptr noundef nonnull %5, i32 noundef -1)
          to label %12 unwind label %36

12:                                               ; preds = %11
  %13 = getelementptr inbounds nuw i8, ptr %4, i64 8
  %14 = load i16, ptr %13, align 8, !tbaa !23
  %15 = icmp slt i16 %14, 0
  %16 = ashr i16 %14, 5
  %17 = sext i16 %16 to i32
  %18 = getelementptr inbounds nuw i8, ptr %4, i64 12
  %19 = load i32, ptr %18, align 4
  %20 = select i1 %15, i32 %19, i32 %17
  %21 = and i16 %14, 1
  %.not.i.i = icmp eq i16 %21, 0
  %22 = getelementptr inbounds nuw i8, ptr %1, i64 8
  %23 = load i16, ptr %22, align 8, !tbaa !23
  %24 = and i16 %23, 1
  %.not6.i.i = icmp eq i16 %24, 0
  br i1 %.not.i.i, label %.sink.split.i.i.i, label %_ZNK6icu_7713UnicodeString10startsWithERKS0_.exit

.sink.split.i.i.i:                                ; preds = %12
  br i1 %.not6.i.i, label %25, label %.critedge

25:                                               ; preds = %.sink.split.i.i.i
  %spec.select12.i.i = call i32 @llvm.smin.i32(i32 %20, i32 0)
  %.010.i.i = call i32 @llvm.smax.i32(i32 %20, i32 0)
  %26 = and i16 %14, 2
  %.not.i.i.i = icmp eq i16 %26, 0
  %27 = getelementptr inbounds nuw i8, ptr %4, i64 10
  %28 = getelementptr inbounds nuw i8, ptr %4, i64 24
  %29 = load ptr, ptr %28, align 8
  %30 = select i1 %.not.i.i.i, ptr %29, ptr %27
  %31 = invoke noundef signext i8 @_ZNK6icu_7713UnicodeString17doEqualsSubstringEiiPKDsii(ptr noundef nonnull align 8 dereferenceable(64) %1, i32 noundef 0, i32 noundef %20, ptr noundef %30, i32 noundef %spec.select12.i.i, i32 noundef %.010.i.i)
          to label %.noexc unwind label %38

.noexc:                                           ; preds = %25
  %.not = icmp eq i8 %31, 0
  br label %_ZNK6icu_7713UnicodeString10startsWithERKS0_.exit

_ZNK6icu_7713UnicodeString10startsWithERKS0_.exit: ; preds = %12, %.noexc
  %.0.i.i = phi i1 [ %.not, %.noexc ], [ %.not6.i.i, %12 ]
  call void @_ZN6icu_7713UnicodeStringD1Ev(ptr noundef nonnull align 8 dereferenceable(64) %4) #14
  %32 = load ptr, ptr %5, align 8, !tbaa !20
  call void asm sideeffect "", "rm,~{memory},~{dirflag},~{fpsr},~{flags}"(ptr %32) #14, !srcloc !24
  call void @llvm.lifetime.end.p0(i64 64, ptr nonnull %4) #14
  br i1 %.0.i.i, label %34, label %42

.critedge:                                        ; preds = %.sink.split.i.i.i
  call void @_ZN6icu_7713UnicodeStringD1Ev(ptr noundef nonnull align 8 dereferenceable(64) %4) #14
  %33 = load ptr, ptr %5, align 8, !tbaa !20
  call void asm sideeffect "", "rm,~{memory},~{dirflag},~{fpsr},~{flags}"(ptr %33) #14, !srcloc !24
  call void @llvm.lifetime.end.p0(i64 64, ptr nonnull %4) #14
  br label %34

34:                                               ; preds = %.critedge, %_ZNK6icu_7713UnicodeString10startsWithERKS0_.exit
  store i32 3, ptr %2, align 4, !tbaa !13
  store i32 0, ptr %0, align 8, !tbaa !15
  %35 = getelementptr inbounds nuw i8, ptr %0, i64 24
  store i32 0, ptr %35, align 8, !tbaa !19
  br label %44

36:                                               ; preds = %11
  %37 = landingpad { ptr, i32 }
          cleanup
  br label %40

38:                                               ; preds = %25
  %39 = landingpad { ptr, i32 }
          cleanup
  call void @_ZN6icu_7713UnicodeStringD1Ev(ptr noundef nonnull align 8 dereferenceable(64) %4) #14
  br label %40

40:                                               ; preds = %38, %36
  %.pn = phi { ptr, i32 } [ %39, %38 ], [ %37, %36 ]
  %41 = load ptr, ptr %5, align 8, !tbaa !20
  call void asm sideeffect "", "rm,~{memory},~{dirflag},~{fpsr},~{flags}"(ptr %41) #14, !srcloc !24
  call void @llvm.lifetime.end.p0(i64 64, ptr nonnull %4) #14
  resume { ptr, i32 } %.pn

42:                                               ; preds = %_ZNK6icu_7713UnicodeString10startsWithERKS0_.exit
  call void @llvm.lifetime.start.p0(i64 24, ptr nonnull %6) #14
  call void @_ZN6icu_7713StringSegmentC1ERKNS_13UnicodeStringEb(ptr noundef nonnull align 8 dereferenceable(17) %6, ptr noundef nonnull align 8 dereferenceable(64) %1, i1 noundef zeroext false)
  call void @_ZN6icu_7713StringSegment12adjustOffsetEi(ptr noundef nonnull align 8 dereferenceable(17) %6, i32 noundef 20)
  store i32 0, ptr %0, align 8, !tbaa !15
  %43 = getelementptr inbounds nuw i8, ptr %0, i64 24
  store i32 0, ptr %43, align 8, !tbaa !19
  call void @_ZN6icu_776number4impl20parseIncrementOptionERKNS_13StringSegmentERNS0_9PrecisionER10UErrorCode(ptr noundef nonnull align 8 dereferenceable(17) %6, ptr noundef nonnull align 8 dereferenceable(28) %0, ptr noundef nonnull align 4 dereferenceable(4) %2)
  call void @llvm.lifetime.end.p0(i64 24, ptr nonnull %6) #14
  br label %44

44:                                               ; preds = %34, %42, %9
  ret void
}